target datalayout = "e-m:e-p270:32:32-p271:32:32-p272:64:64-i64:64-i128:128-f80:128-n8:16:32:64-S128"
target triple = "x86_64-pc-linux-gnu"

%struct._lv_image_decoder_dsc_t = type { ptr, %struct._lv_image_decoder_args_t, ptr, i32, %struct.lv_fs_file_t, %struct.lv_image_header_t, ptr, ptr, i32, i32, ptr, ptr, ptr, ptr }
%struct._lv_image_decoder_args_t = type { i8, i8, i8, i8, i8 }
%struct.lv_fs_file_t = type { ptr, ptr, ptr }
%struct.lv_image_header_t = type <{ i64, i32 }>
%struct._lv_image_decoder_t = type { ptr, ptr, ptr, ptr, ptr, ptr, ptr }

; Function Attrs: nounwind uwtable
define void @lv_image_decoder_close(ptr noundef %0) #0 {
  %2 = alloca ptr, align 8
  store ptr %0, ptr %2, align 8, !tbaa !46
  %3 = load ptr, ptr %2, align 8, !tbaa !46
  %4 = getelementptr inbounds nuw %struct._lv_image_decoder_dsc_t, ptr %3, i32 0, i32 0
  %5 = load ptr, ptr %4, align 8, !tbaa !71
  %6 = icmp ne ptr %5, null
  br i1 %6, label %7, label %44

7:                                                ; preds = %1
  %8 = load ptr, ptr %2, align 8, !tbaa !46
  %9 = getelementptr inbounds nuw %struct._lv_image_decoder_dsc_t, ptr %8, i32 0, i32 0
  %10 = load ptr, ptr %9, align 8, !tbaa !71
  %11 = getelementptr inbounds nuw %struct._lv_image_decoder_t, ptr %10, i32 0, i32 3
  %12 = load ptr, ptr %11, align 8, !tbaa !90
  %13 = icmp ne ptr %12, null
  br i1 %13, label %14, label %24

14:                                               ; preds = %7
  %15 = load ptr, ptr %2, align 8, !tbaa !46
  %16 = getelementptr inbounds nuw %struct._lv_image_decoder_dsc_t, ptr %15, i32 0, i32 0
  %17 = load ptr, ptr %16, align 8, !tbaa !71
  %18 = getelementptr inbounds nuw %struct._lv_image_decoder_t, ptr %17, i32 0, i32 3
  %19 = load ptr, ptr %18, align 8, !tbaa !90
  %20 = load ptr, ptr %2, align 8, !tbaa !46
  %21 = getelementptr inbounds nuw %struct._lv_image_decoder_dsc_t, ptr %20, i32 0, i32 0
  %22 = load ptr, ptr %21, align 8, !tbaa !71
  %23 = load ptr, ptr %2, align 8, !tbaa !46
  call void %19(ptr noundef %22, ptr noundef %23)
  br label %24

24:                                               ; preds = %14, %7
  %25 = call zeroext i1 @lv_image_cache_is_enabled()
  br i1 %25, label %26, label %43

26:                                               ; preds = %24
  %27 = load ptr, ptr %2, align 8, !tbaa !46
  %28 = getelementptr inbounds nuw %struct._lv_image_decoder_dsc_t, ptr %27, i32 0, i32 11
  %29 = load ptr, ptr %28, align 8, !tbaa !69
  %30 = icmp ne ptr %29, null
  br i1 %30, label %31, label %43

31:                                               ; preds = %26
  %32 = load ptr, ptr %2, align 8, !tbaa !46
  %33 = getelementptr inbounds nuw %struct._lv_image_decoder_dsc_t, ptr %32, i32 0, i32 12
  %34 = load ptr, ptr %33, align 8, !tbaa !88
  %35 = icmp ne ptr %34, null
  br i1 %35, label %36, label %43

36:                                               ; preds = %31
  %37 = load ptr, ptr %2, align 8, !tbaa !46
  %38 = getelementptr inbounds nuw %struct._lv_image_decoder_dsc_t, ptr %37, i32 0, i32 11
  %39 = load ptr, ptr %38, align 8, !tbaa !69
  %40 = load ptr, ptr %2, align 8, !tbaa !46
  %41 = getelementptr inbounds nuw %struct._lv_image_decoder_dsc_t, ptr %40, i32 0, i32 12
  %42 = load ptr, ptr %41, align 8, !tbaa !88
  call void @lv_cache_release(ptr noundef %39, ptr noundef %42, ptr noundef null)
  br label %43

43:                                               ; preds = %36, %31, %26, %24
  br label %44

44:                                               ; preds = %43, %1
  ret void
}