; Function Attrs: nounwind uwtable
define void @lv_image_decoder_close(ptr noundef %0) local_unnamed_addr #0 {
  %2 = load ptr, ptr %0, align 8, !tbaa !66
  %.not = icmp eq ptr %2, null
  br i1 %.not, label %16, label %3

3:                                                ; preds = %1
  %4 = getelementptr inbounds nuw i8, ptr %2, i64 24
  %5 = load ptr, ptr %4, align 8, !tbaa !72
  %.not12 = icmp eq ptr %5, null
  br i1 %.not12, label %7, label %6

6:                                                ; preds = %3
  tail call void %5(ptr noundef nonnull %2, ptr noundef nonnull %0) #6
  br label %7

7:                                                ; preds = %6, %3
  %8 = tail call zeroext i1 @lv_image_cache_is_enabled() #6
  br i1 %8, label %9, label %16

9:                                                ; preds = %7
  %10 = getelementptr inbounds nuw i8, ptr %0, i64 104
  %11 = load ptr, ptr %10, align 8, !tbaa !55
  %.not13 = icmp eq ptr %11, null
  br i1 %.not13, label %16, label %12

12:                                               ; preds = %9
  %13 = getelementptr inbounds nuw i8, ptr %0, i64 112
  %14 = load ptr, ptr %13, align 8, !tbaa !67
  %.not14 = icmp eq ptr %14, null
  br i1 %.not14, label %16, label %15

15:                                               ; preds = %12
  tail call void @lv_cache_release(ptr noundef nonnull %11, ptr noundef nonnull %14, ptr noundef null) #6
  br label %16

16:                                               ; preds = %7, %9, %12, %15, %1
  ret void
}